; Function Attrs: mustprogress uwtable
define hidden void @_ZN8datatype4decl6plugin12get_op_namesER7svectorI12builtin_namejERK6symbol(ptr nonnull readnone align 8 captures(none) %0, ptr noundef nonnull align 8 dereferenceable(8) %1, ptr noundef nonnull readonly align 8 captures(none) dereferenceable(8) %2) unnamed_addr #4 align 2 {
  %4 = alloca %struct.builtin_name, align 8
  %5 = alloca %class.symbol, align 8
  %6 = alloca %struct.builtin_name, align 8
  call void @llvm.lifetime.start.p0(i64 16, ptr nonnull %4) #28
  store i32 2, ptr %4, align 8, !tbaa !469
  %7 = getelementptr inbounds nuw i8, ptr %4, i64 8
  call void @_ZN6symbolC1EPKc(ptr noundef nonnull align 8 dereferenceable(8) %7, ptr noundef nonnull @.str.16)
  %8 = load ptr, ptr %1, align 8, !tbaa !471
  %9 = icmp eq ptr %8, null
  br i1 %9, label %16, label %10

10:                                               ; preds = %3
  %11 = getelementptr inbounds i8, ptr %8, i64 -4
  %12 = load i32, ptr %11, align 4, !tbaa !25
  %13 = getelementptr inbounds i8, ptr %8, i64 -8
  %14 = load i32, ptr %13, align 4, !tbaa !25
  %15 = icmp eq i32 %12, %14
  br i1 %15, label %16, label %_ZN6vectorI12builtin_nameLb0EjE9push_backEOS0_.exit

16:                                               ; preds = %10, %3
  call void @_ZN6vectorI12builtin_nameLb0EjE13expand_vectorEv(ptr noundef nonnull align 8 dereferenceable(8) %1)
  %.pre.i = load ptr, ptr %1, align 8, !tbaa !471
  %.phi.trans.insert.i = getelementptr inbounds i8, ptr %.pre.i, i64 -4
  %.pre2.i = load i32, ptr %.phi.trans.insert.i, align 4, !tbaa !25
  br label %_ZN6vectorI12builtin_nameLb0EjE9push_backEOS0_.exit

_ZN6vectorI12builtin_nameLb0EjE9push_backEOS0_.exit: ; preds = %10, %16
  %17 = phi i32 [ %.pre2.i, %16 ], [ %12, %10 ]
  %18 = phi ptr [ %.pre.i, %16 ], [ %8, %10 ]
  %19 = zext i32 %17 to i64
  %20 = getelementptr inbounds nuw %struct.builtin_name, ptr %18, i64 %19
  call void @llvm.memcpy.p0.p0.i64(ptr noundef nonnull align 8 dereferenceable(16) %20, ptr noundef nonnull align 8 dereferenceable(16) %4, i64 16, i1 false), !tbaa.struct !474
  %21 = load ptr, ptr %1, align 8, !tbaa !471
  %22 = getelementptr inbounds i8, ptr %21, i64 -4
  %23 = load i32, ptr %22, align 4, !tbaa !25
  %24 = add i32 %23, 1
  store i32 %24, ptr %22, align 4, !tbaa !25
  call void @llvm.lifetime.end.p0(i64 16, ptr nonnull %4) #28
  %25 = load ptr, ptr %2, align 8, !tbaa !259
  %26 = load ptr, ptr @_ZN6symbol4nullE, align 8, !tbaa !259
  %27 = icmp eq ptr %25, %26
  call void @llvm.lifetime.start.p0(i64 8, ptr nonnull %5) #28
  br i1 %27, label %.critedge, label %28

28:                                               ; preds = %_ZN6vectorI12builtin_nameLb0EjE9push_backEOS0_.exit
  call void @_ZN6symbolC1EPKc(ptr noundef nonnull align 8 dereferenceable(8) %5, ptr noundef nonnull @.str.33)
  %29 = load ptr, ptr %2, align 8, !tbaa !259
  %30 = load ptr, ptr %5, align 8, !tbaa !259
  %31 = icmp eq ptr %29, %30
  call void @llvm.lifetime.end.p0(i64 8, ptr nonnull %5) #28
  br i1 %31, label %32, label %51

.critedge:                                        ; preds = %_ZN6vectorI12builtin_nameLb0EjE9push_backEOS0_.exit
  call void @llvm.lifetime.end.p0(i64 8, ptr nonnull %5) #28
  br label %32

32:                                               ; preds = %.critedge, %28
  call void @llvm.lifetime.start.p0(i64 16, ptr nonnull %6) #28
  store i32 4, ptr %6, align 8, !tbaa !469
  %33 = getelementptr inbounds nuw i8, ptr %6, i64 8
  call void @_ZN6symbolC1EPKc(ptr noundef nonnull align 8 dereferenceable(8) %33, ptr noundef nonnull @.str.7)
  %34 = load ptr, ptr %1, align 8, !tbaa !471
  %35 = icmp eq ptr %34, null
  br i1 %35, label %42, label %36

36:                                               ; preds = %32
  %37 = getelementptr inbounds i8, ptr %34, i64 -4
  %38 = load i32, ptr %37, align 4, !tbaa !25
  %39 = getelementptr inbounds i8, ptr %34, i64 -8
  %40 = load i32, ptr %39, align 4, !tbaa !25
  %41 = icmp eq i32 %38, %40
  br i1 %41, label %42, label %_ZN6vectorI12builtin_nameLb0EjE9push_backEOS0_.exit7

42:                                               ; preds = %36, %32
  call void @_ZN6vectorI12builtin_nameLb0EjE13expand_vectorEv(ptr noundef nonnull align 8 dereferenceable(8) %1)
  %.pre.i4 = load ptr, ptr %1, align 8, !tbaa !471
  %.phi.trans.insert.i5 = getelementptr inbounds i8, ptr %.pre.i4, i64 -4
  %.pre2.i6 = load i32, ptr %.phi.trans.insert.i5, align 4, !tbaa !25
  br label %_ZN6vectorI12builtin_nameLb0EjE9push_backEOS0_.exit7

_ZN6vectorI12builtin_nameLb0EjE9push_backEOS0_.exit7: ; preds = %36, %42
  %43 = phi i32 [ %.pre2.i6, %42 ], [ %38, %36 ]
  %44 = phi ptr [ %.pre.i4, %42 ], [ %34, %36 ]
  %45 = zext i32 %43 to i64
  %46 = getelementptr inbounds nuw %struct.builtin_name, ptr %44, i64 %45
  call void @llvm.memcpy.p0.p0.i64(ptr noundef nonnull align 8 dereferenceable(16) %46, ptr noundef nonnull align 8 dereferenceable(16) %6, i64 16, i1 false), !tbaa.struct !474
  %47 = load ptr, ptr %1, align 8, !tbaa !471
  %48 = getelementptr inbounds i8, ptr %47, i64 -4
  %49 = load i32, ptr %48, align 4, !tbaa !25
  %50 = add i32 %49, 1
  store i32 %50, ptr %48, align 4, !tbaa !25
  call void @llvm.lifetime.end.p0(i64 16, ptr nonnull %6) #28
  br label %51

51:                                               ; preds = %_ZN6vectorI12builtin_nameLb0EjE9push_backEOS0_.exit7, %28
  ret void
}